target datalayout = "e-m:e-p270:32:32-p271:32:32-p272:64:64-i64:64-i128:128-f80:128-n8:16:32:64-S128"
target triple = "x86_64-pc-linux-gnu"

%"class.std::vector.31" = type { %"struct.std::_Vector_base.32" }
%"struct.std::_Vector_base.32" = type { %"struct.std::_Vector_base<const Variable *, std::allocator<const Variable *>>::_Vector_impl" }
%"struct.std::_Vector_base<const Variable *, std::allocator<const Variable *>>::_Vector_impl" = type { %"struct.std::_Vector_base<const Variable *, std::allocator<const Variable *>>::_Vector_impl_data" }
%"struct.std::_Vector_base<const Variable *, std::allocator<const Variable *>>::_Vector_impl_data" = type { ptr, ptr, ptr }
%"class.std::vector.10" = type { %"struct.std::_Vector_base.11" }
%"struct.std::_Vector_base.11" = type { %"struct.std::_Vector_base<Variable *, std::allocator<Variable *>>::_Vector_impl" }
%"struct.std::_Vector_base<Variable *, std::allocator<Variable *>>::_Vector_impl" = type { %"struct.std::_Vector_base<Variable *, std::allocator<Variable *>>::_Vector_impl_data" }
%"struct.std::_Vector_base<Variable *, std::allocator<Variable *>>::_Vector_impl_data" = type { ptr, ptr, ptr }
%class.Function = type { %"class.std::__cxx11::basic_string", %"class.std::vector.10", ptr, %class.Effect, %"class.std::vector.36", %"class.std::vector.36", ptr, ptr, ptr, %"class.std::vector.31", %"class.std::vector.31", i8, i8, i8, i8, i32, %class.Effect, i8, %"class.std::__cxx11::basic_string", i32, %"class.std::vector.31" }
%"class.std::vector.36" = type { %"struct.std::_Vector_base.37" }
%"struct.std::_Vector_base.37" = type { %"struct.std::_Vector_base<Block *, std::allocator<Block *>>::_Vector_impl" }
%"struct.std::_Vector_base<Block *, std::allocator<Block *>>::_Vector_impl" = type { %"struct.std::_Vector_base<Block *, std::allocator<Block *>>::_Vector_impl_data" }
%"struct.std::_Vector_base<Block *, std::allocator<Block *>>::_Vector_impl_data" = type { ptr, ptr, ptr }
%class.Effect = type <{ %"class.std::vector.31", %"class.std::vector.31", %"class.std::vector.31", i8, i8, [6 x i8] }>
%"class.std::__cxx11::basic_string" = type { %"struct.std::__cxx11::basic_string<char>::_Alloc_hider", i64, %union.anon }
%"struct.std::__cxx11::basic_string<char>::_Alloc_hider" = type { ptr }
%union.anon = type { i64, [8 x i8] }
%"struct.std::_Vector_base.24" = type { %"struct.std::_Vector_base<Function *, std::allocator<Function *>>::_Vector_impl" }
%"struct.std::_Vector_base<Function *, std::allocator<Function *>>::_Vector_impl" = type { %"struct.std::_Vector_base<Function *, std::allocator<Function *>>::_Vector_impl_data" }
%"struct.std::_Vector_base<Function *, std::allocator<Function *>>::_Vector_impl_data" = type { ptr, ptr, ptr }

; Function Attrs: mustprogress nounwind uwtable
define linkonce_odr dso_local noundef nonnull align 8 dereferenceable(8) ptr @_ZNKSt6vectorIP8FunctionSaIS1_EEixEm(ptr noundef nonnull align 8 dereferenceable(24) %0, i64 noundef %1) #4 comdat align 2 {
  %3 = alloca ptr, align 8
  %4 = alloca i64, align 8
  store ptr %0, ptr %3, align 8, !tbaa !45
  store i64 %1, ptr %4, align 8, !tbaa !26
  %5 = load ptr, ptr %3, align 8
  %6 = getelementptr inbounds nuw %"struct.std::_Vector_base.24", ptr %5, i32 0, i32 0
  %7 = getelementptr inbounds nuw %"struct.std::_Vector_base<Function *, std::allocator<Function *>>::_Vector_impl_data", ptr %6, i32 0, i32 0
  %8 = load ptr, ptr %7, align 8, !tbaa !79
  %9 = load i64, ptr %4, align 8, !tbaa !26
  %10 = getelementptr inbounds nuw ptr, ptr %8, i64 %9
  ret ptr %10
}

; Function Attrs: mustprogress nounwind uwtable
define linkonce_odr dso_local noundef i64 @_ZNKSt6vectorIP8FunctionSaIS1_EE4sizeEv(ptr noundef nonnull align 8 dereferenceable(24) %0) #4 comdat align 2 {
  %2 = alloca ptr, align 8
  store ptr %0, ptr %2, align 8, !tbaa !45
  %3 = load ptr, ptr %2, align 8
  %4 = getelementptr inbounds nuw %"struct.std::_Vector_base.24", ptr %3, i32 0, i32 0
  %5 = getelementptr inbounds nuw %"struct.std::_Vector_base<Function *, std::allocator<Function *>>::_Vector_impl_data", ptr %4, i32 0, i32 1
  %6 = load ptr, ptr %5, align 8, !tbaa !76
  %7 = getelementptr inbounds nuw %"struct.std::_Vector_base.24", ptr %3, i32 0, i32 0
  %8 = getelementptr inbounds nuw %"struct.std::_Vector_base<Function *, std::allocator<Function *>>::_Vector_impl_data", ptr %7, i32 0, i32 0
  %9 = load ptr, ptr %8, align 8, !tbaa !79
  %10 = ptrtoint ptr %6 to i64
  %11 = ptrtoint ptr %9 to i64
  %12 = sub i64 %10, %11
  %13 = sdiv exact i64 %12, 8
  ret i64 %13
}

; Function Attrs: mustprogress uwtable
define dso_local noundef i32 @_ZN10Bookkeeper15stat_blk_depthsEv() #5 align 2 {
  %1 = alloca ptr, align 8
  %2 = alloca i32, align 4
  %3 = alloca i64, align 8
  call void @llvm.lifetime.start.p0(i64 8, ptr %1) #3
  %4 = call noundef nonnull align 8 dereferenceable(24) ptr @_Z17get_all_functionsv()
  store ptr %4, ptr %1, align 8, !tbaa !45
  call void @llvm.lifetime.start.p0(i64 4, ptr %2) #3
  store i32 0, ptr %2, align 4, !tbaa !15
  call void @llvm.lifetime.start.p0(i64 8, ptr %3) #3
  store i64 0, ptr %3, align 8, !tbaa !26
  br label %5

5:                                                ; preds = %30, %0
  %6 = load i64, ptr %3, align 8, !tbaa !26
  %7 = load ptr, ptr %1, align 8, !tbaa !45
  %8 = call noundef i64 @_ZNKSt6vectorIP8FunctionSaIS1_EE4sizeEv(ptr noundef nonnull align 8 dereferenceable(24) %7) #3
  %9 = icmp ult i64 %6, %8
  br i1 %9, label %11, label %10

10:                                               ; preds = %5
  call void @llvm.lifetime.end.p0(i64 8, ptr %3) #3
  br label %33

11:                                               ; preds = %5
  %12 = load ptr, ptr %1, align 8, !tbaa !45
  %13 = load i64, ptr %3, align 8, !tbaa !26
  %14 = call noundef nonnull align 8 dereferenceable(8) ptr @_ZNKSt6vectorIP8FunctionSaIS1_EEixEm(ptr noundef nonnull align 8 dereferenceable(24) %12, i64 noundef %13) #3
  %15 = load ptr, ptr %14, align 8, !tbaa !47
  %16 = getelementptr inbounds nuw %class.Function, ptr %15, i32 0, i32 14
  %17 = load i8, ptr %16, align 1, !tbaa !48, !range !72, !noundef !73
  %18 = trunc i8 %17 to i1
  br i1 %18, label %19, label %20

19:                                               ; preds = %11
  br label %30

20:                                               ; preds = %11
  %21 = load ptr, ptr %1, align 8, !tbaa !45
  %22 = load i64, ptr %3, align 8, !tbaa !26
  %23 = call noundef nonnull align 8 dereferenceable(8) ptr @_ZNKSt6vectorIP8FunctionSaIS1_EEixEm(ptr noundef nonnull align 8 dereferenceable(24) %21, i64 noundef %22) #3
  %24 = load ptr, ptr %23, align 8, !tbaa !47
  %25 = getelementptr inbounds nuw %class.Function, ptr %24, i32 0, i32 6
  %26 = load ptr, ptr %25, align 8, !tbaa !74
  %27 = call noundef i32 @_ZN10Bookkeeper24stat_blk_depths_for_stmtEPK9Statement(ptr noundef %26)
  %28 = load i32, ptr %2, align 4, !tbaa !15
  %29 = add nsw i32 %28, %27
  store i32 %29, ptr %2, align 4, !tbaa !15
  br label %30

30:                                               ; preds = %20, %19
  %31 = load i64, ptr %3, align 8, !tbaa !26
  %32 = add i64 %31, 1
  store i64 %32, ptr %3, align 8, !tbaa !26
  br label %5, !llvm.loop !75

33:                                               ; preds = %10
  %34 = load i32, ptr %2, align 4, !tbaa !15
  call void @llvm.lifetime.end.p0(i64 4, ptr %2) #3
  call void @llvm.lifetime.end.p0(i64 8, ptr %1) #3
  ret i32 %34
}