; Function Attrs: mustprogress uwtable
define dso_local noundef i32 @_ZN10Bookkeeper15stat_blk_depthsEv() local_unnamed_addr #6 align 2 {
  %1 = tail call noundef nonnull align 8 dereferenceable(24) ptr @_Z17get_all_functionsv()
  %2 = getelementptr inbounds nuw i8, ptr %1, i64 8
  %3 = load ptr, ptr %2, align 8, !tbaa !36
  %4 = load ptr, ptr %1, align 8, !tbaa !39
  %.not = icmp eq ptr %3, %4
  br i1 %.not, label %._crit_edge, label %.lr.ph

._crit_edge:                                      ; preds = %17, %0
  %.08.lcssa = phi i32 [ 0, %0 ], [ %.1, %17 ]
  ret i32 %.08.lcssa

.lr.ph:                                           ; preds = %0, %17
  %5 = phi ptr [ %18, %17 ], [ %4, %0 ]
  %6 = phi ptr [ %19, %17 ], [ %3, %0 ]
  %.010 = phi i64 [ %20, %17 ], [ 0, %0 ]
  %.089 = phi i32 [ %.1, %17 ], [ 0, %0 ]
  %7 = getelementptr inbounds nuw ptr, ptr %5, i64 %.010
  %8 = load ptr, ptr %7, align 8, !tbaa !40
  %9 = getelementptr inbounds nuw i8, ptr %8, i64 267
  %10 = load i8, ptr %9, align 1, !tbaa !41, !range !66, !noundef !67
  %11 = trunc nuw i8 %10 to i1
  br i1 %11, label %17, label %12

12:                                               ; preds = %.lr.ph
  %13 = getelementptr inbounds nuw i8, ptr %8, i64 192
  %14 = load ptr, ptr %13, align 8, !tbaa !68
  %15 = tail call noundef i32 @_ZN10Bookkeeper24stat_blk_depths_for_stmtEPK9Statement(ptr noundef %14)
  %16 = add nsw i32 %15, %.089
  %.pre = load ptr, ptr %2, align 8, !tbaa !36
  %.pre11 = load ptr, ptr %1, align 8, !tbaa !39
  br label %17

17:                                               ; preds = %.lr.ph, %12
  %18 = phi ptr [ %5, %.lr.ph ], [ %.pre11, %12 ]
  %19 = phi ptr [ %6, %.lr.ph ], [ %.pre, %12 ]
  %.1 = phi i32 [ %.089, %.lr.ph ], [ %16, %12 ]
  %20 = add nuw i64 %.010, 1
  %21 = ptrtoint ptr %19 to i64
  %22 = ptrtoint ptr %18 to i64
  %23 = sub i64 %21, %22
  %24 = ashr exact i64 %23, 3
  %25 = icmp ult i64 %20, %24
  br i1 %25, label %.lr.ph, label %._crit_edge, !llvm.loop !69
}